; Function Attrs: mustprogress uwtable
define void @_ZN7rocksdb19DecodeUniqueIdBytesERKNSt7__cxx1112basic_stringIcSt11char_traitsIcESaIcEEENS_11UniqueIdPtrE(ptr dead_on_unwind noalias writable sret(%"class.rocksdb::Status") align 8 %0, ptr noundef nonnull readonly align 8 captures(none) dereferenceable(32) %1, ptr writeonly captures(none) %2, i8 %3) local_unnamed_addr #0 personality ptr @__gxx_personality_v0 {
  %5 = alloca %"class.rocksdb::Slice", align 8
  %6 = alloca %"class.rocksdb::Slice", align 8
  %7 = getelementptr inbounds nuw i8, ptr %1, i64 8
  %8 = load i64, ptr %7, align 8, !tbaa !16
  %9 = trunc i8 %3 to i1
  %10 = select i1 %9, i64 24, i64 16
  %.not = icmp eq i64 %8, %10
  br i1 %.not, label %14, label %11

11:                                               ; preds = %4
  call void @llvm.lifetime.start.p0(i64 16, ptr nonnull %5) #10
  store ptr @.str.6, ptr %5, align 8, !tbaa !17
  %12 = getelementptr inbounds nuw i8, ptr %5, i64 8
  store i64 21, ptr %12, align 8, !tbaa !19
  call void @llvm.lifetime.start.p0(i64 16, ptr nonnull %6) #10
  store ptr @.str.11, ptr %6, align 8, !tbaa !17
  %13 = getelementptr inbounds nuw i8, ptr %6, i64 8
  store i64 0, ptr %13, align 8, !tbaa !19
  call void @_ZN7rocksdb6StatusC2ENS0_4CodeENS0_7SubCodeERKNS_5SliceES5_NS0_8SeverityE(ptr noundef nonnull align 8 dereferenceable(16) %0, i8 noundef zeroext 3, i8 noundef zeroext 0, ptr noundef nonnull align 8 dereferenceable(16) %5, ptr noundef nonnull align 8 dereferenceable(16) %6, i8 noundef zeroext 0)
  call void @llvm.lifetime.end.p0(i64 16, ptr nonnull %6) #10
  call void @llvm.lifetime.end.p0(i64 16, ptr nonnull %5) #10
  br label %23

14:                                               ; preds = %4
  %15 = load ptr, ptr %1, align 8, !tbaa !10
  %.0.copyload.i = load i64, ptr %15, align 1
  store i64 %.0.copyload.i, ptr %2, align 8, !tbaa !20
  %16 = getelementptr inbounds nuw i8, ptr %15, i64 8
  %.0.copyload.i8 = load i64, ptr %16, align 1
  %17 = getelementptr inbounds nuw i8, ptr %2, i64 8
  store i64 %.0.copyload.i8, ptr %17, align 8, !tbaa !20
  br i1 %9, label %18, label %21

18:                                               ; preds = %14
  %19 = getelementptr inbounds nuw i8, ptr %15, i64 16
  %.0.copyload.i9 = load i64, ptr %19, align 1
  %20 = getelementptr inbounds nuw i8, ptr %2, i64 16
  store i64 %.0.copyload.i9, ptr %20, align 8, !tbaa !20
  br label %21

21:                                               ; preds = %18, %14
  %22 = getelementptr inbounds nuw i8, ptr %0, i64 8
  store ptr null, ptr %22, align 8, !tbaa !21, !alias.scope !41
  tail call void @llvm.memset.p0.i64(ptr noundef nonnull align 8 dereferenceable(16) %0, i8 0, i64 6, i1 false), !alias.scope !41
  br label %23

23:                                               ; preds = %21, %11
  ret void
}